target datalayout = "e-m:e-p270:32:32-p271:32:32-p272:64:64-i64:64-i128:128-f80:128-n8:16:32:64-S128"
target triple = "x86_64-pc-linux-gnu"

%struct.ma_vec3f = type { float, float, float }

; Function Attrs: nounwind uwtable
define float @ma_vec3f_dot(<2 x float> %0, float %1, <2 x float> %2, float %3) #14 {
  %5 = alloca %struct.ma_vec3f, align 4
  %6 = alloca { <2 x float>, float }, align 4
  %7 = alloca %struct.ma_vec3f, align 4
  %8 = alloca { <2 x float>, float }, align 4
  %9 = getelementptr inbounds nuw { <2 x float>, float }, ptr %6, i32 0, i32 0
  store <2 x float> %0, ptr %9, align 4
  %10 = getelementptr inbounds nuw { <2 x float>, float }, ptr %6, i32 0, i32 1
  store float %1, ptr %10, align 4
  call void @llvm.memcpy.p0.p0.i64(ptr align 4 %5, ptr align 4 %6, i64 12, i1 false)
  %11 = getelementptr inbounds nuw { <2 x float>, float }, ptr %8, i32 0, i32 0
  store <2 x float> %2, ptr %11, align 4
  %12 = getelementptr inbounds nuw { <2 x float>, float }, ptr %8, i32 0, i32 1
  store float %3, ptr %12, align 4
  call void @llvm.memcpy.p0.p0.i64(ptr align 4 %7, ptr align 4 %8, i64 12, i1 false)
  %13 = getelementptr inbounds nuw %struct.ma_vec3f, ptr %5, i32 0, i32 0
  %14 = load float, ptr %13, align 4, !tbaa !594
  %15 = getelementptr inbounds nuw %struct.ma_vec3f, ptr %7, i32 0, i32 0
  %16 = load float, ptr %15, align 4, !tbaa !594
  %17 = getelementptr inbounds nuw %struct.ma_vec3f, ptr %5, i32 0, i32 1
  %18 = load float, ptr %17, align 4, !tbaa !596
  %19 = getelementptr inbounds nuw %struct.ma_vec3f, ptr %7, i32 0, i32 1
  %20 = load float, ptr %19, align 4, !tbaa !596
  %21 = fmul float %18, %20
  %22 = call float @llvm.fmuladd.f32(float %14, float %16, float %21)
  %23 = getelementptr inbounds nuw %struct.ma_vec3f, ptr %5, i32 0, i32 2
  %24 = load float, ptr %23, align 4, !tbaa !597
  %25 = getelementptr inbounds nuw %struct.ma_vec3f, ptr %7, i32 0, i32 2
  %26 = load float, ptr %25, align 4, !tbaa !597
  %27 = call float @llvm.fmuladd.f32(float %24, float %26, float %22)
  ret float %27
}

; Function Attrs: alwaysinline nounwind uwtable
define internal float @ma_rsqrtf(float noundef %0) #7 {
  %2 = alloca float, align 4
  %3 = alloca float, align 4
  store float %0, ptr %2, align 4, !tbaa !339
  call void @llvm.lifetime.start.p0(i64 4, ptr %3) #16
  %4 = load float, ptr %2, align 4, !tbaa !339
  %5 = call float asm sideeffect "rsqrtss $1, $0", "=x,x,~{dirflag},~{fpsr},~{flags}"(float %4) #16, !srcloc !599
  store float %5, ptr %3, align 4, !tbaa !339
  %6 = load float, ptr %3, align 4, !tbaa !339
  call void @llvm.lifetime.end.p0(i64 4, ptr %3) #16
  ret float %6
}

; Function Attrs: nounwind uwtable
define { <2 x float>, float } @ma_vec3f_init_3f(float noundef %0, float noundef %1, float noundef %2) #0 {
  %4 = alloca %struct.ma_vec3f, align 4
  %5 = alloca float, align 4
  %6 = alloca float, align 4
  %7 = alloca float, align 4
  %8 = alloca { <2 x float>, float }, align 8
  store float %0, ptr %5, align 4, !tbaa !339
  store float %1, ptr %6, align 4, !tbaa !339
  store float %2, ptr %7, align 4, !tbaa !339
  %9 = load float, ptr %5, align 4, !tbaa !339
  %10 = getelementptr inbounds nuw %struct.ma_vec3f, ptr %4, i32 0, i32 0
  store float %9, ptr %10, align 4, !tbaa !594
  %11 = load float, ptr %6, align 4, !tbaa !339
  %12 = getelementptr inbounds nuw %struct.ma_vec3f, ptr %4, i32 0, i32 1
  store float %11, ptr %12, align 4, !tbaa !596
  %13 = load float, ptr %7, align 4, !tbaa !339
  %14 = getelementptr inbounds nuw %struct.ma_vec3f, ptr %4, i32 0, i32 2
  store float %13, ptr %14, align 4, !tbaa !597
  call void @llvm.memcpy.p0.p0.i64(ptr align 8 %8, ptr align 4 %4, i64 12, i1 false)
  %15 = load { <2 x float>, float }, ptr %8, align 8
  ret { <2 x float>, float } %15
}

; Function Attrs: nounwind uwtable
define float @ma_vec3f_len2(<2 x float> %0, float %1) #14 {
  %3 = alloca %struct.ma_vec3f, align 4
  %4 = alloca { <2 x float>, float }, align 4
  %5 = alloca { <2 x float>, float }, align 4
  %6 = alloca { <2 x float>, float }, align 4
  %7 = getelementptr inbounds nuw { <2 x float>, float }, ptr %4, i32 0, i32 0
  store <2 x float> %0, ptr %7, align 4
  %8 = getelementptr inbounds nuw { <2 x float>, float }, ptr %4, i32 0, i32 1
  store float %1, ptr %8, align 4
  call void @llvm.memcpy.p0.p0.i64(ptr align 4 %3, ptr align 4 %4, i64 12, i1 false)
  call void @llvm.memcpy.p0.p0.i64(ptr align 4 %5, ptr align 4 %3, i64 12, i1 false)
  %9 = getelementptr inbounds nuw { <2 x float>, float }, ptr %5, i32 0, i32 0
  %10 = load <2 x float>, ptr %9, align 4
  %11 = getelementptr inbounds nuw { <2 x float>, float }, ptr %5, i32 0, i32 1
  %12 = load float, ptr %11, align 4
  call void @llvm.memcpy.p0.p0.i64(ptr align 4 %6, ptr align 4 %3, i64 12, i1 false)
  %13 = getelementptr inbounds nuw { <2 x float>, float }, ptr %6, i32 0, i32 0
  %14 = load <2 x float>, ptr %13, align 4
  %15 = getelementptr inbounds nuw { <2 x float>, float }, ptr %6, i32 0, i32 1
  %16 = load float, ptr %15, align 4
  %17 = call float @ma_vec3f_dot(<2 x float> %10, float %12, <2 x float> %14, float %16)
  ret float %17
}

; Function Attrs: nounwind uwtable
define { <2 x float>, float } @ma_vec3f_normalize(<2 x float> %0, float %1) #14 {
  %3 = alloca %struct.ma_vec3f, align 4
  %4 = alloca %struct.ma_vec3f, align 4
  %5 = alloca { <2 x float>, float }, align 4
  %6 = alloca float, align 4
  %7 = alloca float, align 4
  %8 = alloca { <2 x float>, float }, align 4
  %9 = alloca { <2 x float>, float }, align 8
  %10 = alloca i32, align 4
  %11 = alloca { <2 x float>, float }, align 8
  %12 = getelementptr inbounds nuw { <2 x float>, float }, ptr %5, i32 0, i32 0
  store <2 x float> %0, ptr %12, align 4
  %13 = getelementptr inbounds nuw { <2 x float>, float }, ptr %5, i32 0, i32 1
  store float %1, ptr %13, align 4
  call void @llvm.memcpy.p0.p0.i64(ptr align 4 %4, ptr align 4 %5, i64 12, i1 false)
  call void @llvm.lifetime.start.p0(i64 4, ptr %6) #16
  call void @llvm.lifetime.start.p0(i64 4, ptr %7) #16
  call void @llvm.memcpy.p0.p0.i64(ptr align 4 %8, ptr align 4 %4, i64 12, i1 false)
  %14 = getelementptr inbounds nuw { <2 x float>, float }, ptr %8, i32 0, i32 0
  %15 = load <2 x float>, ptr %14, align 4
  %16 = getelementptr inbounds nuw { <2 x float>, float }, ptr %8, i32 0, i32 1
  %17 = load float, ptr %16, align 4
  %18 = call float @ma_vec3f_len2(<2 x float> %15, float %17)
  store float %18, ptr %7, align 4, !tbaa !339
  %19 = load float, ptr %7, align 4, !tbaa !339
  %20 = fcmp oeq float %19, 0.000000e+00
  br i1 %20, label %21, label %23

21:                                               ; preds = %2
  %22 = call { <2 x float>, float } @ma_vec3f_init_3f(float noundef 0.000000e+00, float noundef 0.000000e+00, float noundef 0.000000e+00)
  store { <2 x float>, float } %22, ptr %9, align 8
  call void @llvm.memcpy.p0.p0.i64(ptr align 4 %3, ptr align 8 %9, i64 12, i1 false)
  store i32 1, ptr %10, align 4
  br label %38

23:                                               ; preds = %2
  %24 = load float, ptr %7, align 4, !tbaa !339
  %25 = call float @ma_rsqrtf(float noundef %24)
  store float %25, ptr %6, align 4, !tbaa !339
  %26 = load float, ptr %6, align 4, !tbaa !339
  %27 = getelementptr inbounds nuw %struct.ma_vec3f, ptr %4, i32 0, i32 0
  %28 = load float, ptr %27, align 4, !tbaa !594
  %29 = fmul float %28, %26
  store float %29, ptr %27, align 4, !tbaa !594
  %30 = load float, ptr %6, align 4, !tbaa !339
  %31 = getelementptr inbounds nuw %struct.ma_vec3f, ptr %4, i32 0, i32 1
  %32 = load float, ptr %31, align 4, !tbaa !596
  %33 = fmul float %32, %30
  store float %33, ptr %31, align 4, !tbaa !596
  %34 = load float, ptr %6, align 4, !tbaa !339
  %35 = getelementptr inbounds nuw %struct.ma_vec3f, ptr %4, i32 0, i32 2
  %36 = load float, ptr %35, align 4, !tbaa !597
  %37 = fmul float %36, %34
  store float %37, ptr %35, align 4, !tbaa !597
  call void @llvm.memcpy.p0.p0.i64(ptr align 4 %3, ptr align 4 %4, i64 12, i1 false), !tbaa.struct !598
  store i32 1, ptr %10, align 4
  br label %38

38:                                               ; preds = %23, %21
  call void @llvm.lifetime.end.p0(i64 4, ptr %7) #16
  call void @llvm.lifetime.end.p0(i64 4, ptr %6) #16
  call void @llvm.memcpy.p0.p0.i64(ptr align 8 %11, ptr align 4 %3, i64 12, i1 false)
  %39 = load { <2 x float>, float }, ptr %11, align 8
  ret { <2 x float>, float } %39
}