; Function Attrs: nounwind uwtable
define { <2 x float>, float } @ma_vec3f_normalize(<2 x float> %0, float %1) local_unnamed_addr #42 {
  %.sroa.04.0.vec.extract.i.i = extractelement <2 x float> %0, i64 0
  %.sroa.04.4.vec.extract.i.i = extractelement <2 x float> %0, i64 1
  %3 = fmul float %.sroa.04.4.vec.extract.i.i, %.sroa.04.4.vec.extract.i.i
  %4 = tail call float @llvm.fmuladd.f32(float %.sroa.04.0.vec.extract.i.i, float %.sroa.04.0.vec.extract.i.i, float %3)
  %5 = tail call float @llvm.fmuladd.f32(float %1, float %1, float %4)
  %6 = fcmp oeq float %5, 0.000000e+00
  br i1 %6, label %14, label %7

7:                                                ; preds = %2
  %8 = tail call float asm sideeffect "rsqrtss $1, $0", "=x,x,~{dirflag},~{fpsr},~{flags}"(float %5) #69, !srcloc !744
  %9 = fmul float %.sroa.04.0.vec.extract.i.i, %8
  %.sroa.011.0.vec.insert = insertelement <2 x float> poison, float %9, i64 0
  %10 = fmul float %.sroa.04.4.vec.extract.i.i, %8
  %.sroa.011.4.vec.insert = insertelement <2 x float> %.sroa.011.0.vec.insert, float %10, i64 1
  %11 = fmul float %1, %8
  %12 = insertvalue { <2 x float>, float } poison, <2 x float> %.sroa.011.4.vec.insert, 0
  %13 = insertvalue { <2 x float>, float } %12, float %11, 1
  br label %14

14:                                               ; preds = %2, %7
  %.fca.1.insert.merged = phi { <2 x float>, float } [ %13, %7 ], [ zeroinitializer, %2 ]
  ret { <2 x float>, float } %.fca.1.insert.merged
}